(lp1
((lp2
I1
aI2
aI3
aI4
aI5
aI6
aI7
aI8
aI9
aI10
aI11
aI12
aI13
aI14
aI15
aI16
aI17
a(lp3
F-962732.73566000001
aF-962723.79514000006
aF-962700.86641999998
aF-962658.03810000001
aF-962644.55700999999
aF-962657.14846000005
aF-962634.33150000009
aF-962659.30657000002
aF-962637.55955000012
aF-962617.57779000024
aF-962617.57779000024
aF-962617.57779000024
aF-962617.57779000024
aF-962617.57779000024
aF-962617.57779000024
aF-962617.57779000024
aF-962617.57779000024
a(ttp4
a.