(lp1
((lp2
I1
aI2
aI3
aI4
aI5
aI6
aI7
aI8
aI9
aI10
aI11
aI12
aI13
aI14
aI15
aI16
aI17
a(lp3
F-682079.88153000001
aF-682043.18032000004
aF-682016.09582000005
aF-681988.85973999999
aF-681981.04316
aF-681959.81056000001
aF-681921.73583000002
aF-681899.81560000009
aF-681882.92913000006
aF-681867.48157000018
aF-681856.0065700002
aF-681836.28150000027
aF-681819.50632000028
aF-681807.53516000032
aF-681807.53516000032
aF-681777.60810000019
aF-681777.60810000019
a(ttp4
a.