(lp1
((lp2
I1
aI2
aI3
aI4
aI5
aI6
aI7
aI8
aI9
aI10
aI11
aI12
aI13
aI14
aI15
aI16
aI17
a(lp3
F-667696.09242
aF-667680.33215999999
aF-667669.73011999996
aF-667644.59957999992
aF-667640.80825999996
aF-667622.08868999989
aF-667601.12284999993
aF-667587.66431999998
aF-667587.66431999998
aF-667587.66431999998
aF-667587.66431999998
aF-667587.66431999998
aF-667587.66431999998
aF-667587.66431999998
aF-667587.66431999998
aF-667587.66431999998
aF-667587.66431999998
a(ttp4
a.