(lp1
((lp2
I1
aI2
aI3
aI4
aI5
aI6
aI7
aI8
aI9
aI10
aI11
aI12
aI13
aI14
aI15
aI16
aI17
aI18
aI19
aI20
aI21
aI22
aI23
aI24
aI25
a(lp3
F-682079.8824
aF-682029.29056999995
aF-681988.89990000008
aF-681959.54978999996
aF-681933.08004999999
aF-681916.05695000011
aF-681901.08075000008
aF-681889.09133000008
aF-681872.78415000008
aF-681844.38712000009
aF-681819.24818000011
aF-681776.75839000009
aF-681758.59895999997
aF-681741.38953999989
aF-681728.97924999986
aF-681709.65426999994
aF-681699.18345999997
aF-681699.18345999997
aF-681699.18345999997
aF-681699.18345999997
aF-681699.18345999997
aF-681699.18345999997
aF-681699.18345999997
aF-681699.18345999997
aF-681699.18345999997
a(ttp4
a.