(lp1
((lp2
I1
aI2
aI3
aI4
aI5
aI6
aI7
aI8
aI9
aI10
aI11
aI12
aI13
aI14
aI15
aI16
aI17
aI18
aI19
aI20
aI21
aI22
aI23
aI24
aI25
a(lp3
F-682079.8824
aF-682015.75854000007
aF-681994.33984000003
aF-681943.12742000003
aF-681930.23430999997
aF-681906.82740000007
aF-681887.13772000012
aF-681875.52572999999
aF-681844.99384000001
aF-681824.55518000002
aF-681811.10872000002
aF-681799.50857000006
aF-681781.48428000009
aF-681764.29601000017
aF-681751.22704000026
aF-681735.42744000023
aF-681735.42744000023
aF-681735.42744000023
aF-681735.42744000023
aF-681735.42744000023
aF-681735.42744000023
aF-681735.42744000023
aF-681735.42744000023
aF-681735.42744000023
aF-681735.42744000023
a(ttp4
a.