(lp1
((lp2
I1
aI2
aI3
aI4
aI5
aI6
aI7
aI8
aI9
aI10
aI11
aI12
aI13
aI14
aI15
aI16
aI17
aI18
aI19
aI20
aI21
aI22
aI23
aI24
aI25
a(lp3
F-682079.8824
aF-682027.88237999997
aF-682010.75829999999
aF-681981.9338
aF-681967.84570000006
aF-681951.66705000005
aF-681923.13731000002
aF-681897.15660999995
aF-681878.00492999994
aF-681838.09915999998
aF-681820.14836999995
aF-681812.18620999984
aF-681802.04651999986
aF-681786.12599999993
aF-681758.31134999997
aF-681747.13031999988
aF-681735.7151899999
aF-681726.11276999989
aF-681726.11276999989
aF-681726.11276999989
aF-681726.11276999989
aF-681726.11276999989
aF-681726.11276999989
aF-681726.11276999989
aF-681726.11276999989
a(ttp4
a.