(lp1
((lp2
I1
aI2
aI3
aI4
aI5
aI6
aI7
aI8
aI9
aI10
aI11
aI12
aI13
aI14
aI15
aI16
aI17
aI18
aI19
aI20
aI21
aI22
aI23
aI24
aI25
a(lp3
F-682079.8824
aF-682027.64312999998
aF-682006.73664000002
aF-681976.22215000005
aF-681960.63274000015
aF-681950.18634999997
aF-681924.64521999995
aF-681906.82249999989
aF-681885.54760999989
aF-681865.79062999994
aF-681851.79936999991
aF-681824.42961999984
aF-681806.85409999976
aF-681786.00904999988
aF-681768.91677999997
aF-681753.38280000002
aF-681734.10455000005
aF-681734.10455000005
aF-681734.10455000005
aF-681734.10455000005
aF-681734.10455000005
aF-681734.10455000005
aF-681734.10455000005
aF-681734.10455000005
aF-681734.10455000005
a(ttp4
a.