(lp1
((lp2
I1
aI2
aI3
aI4
aI5
aI6
aI7
aI8
aI9
aI10
aI11
aI12
aI13
aI14
aI15
aI16
aI17
a(lp3
F-682079.8824
aF-681948.98391000007
aF-681807.21027000004
aF-681739.13415000006
aF-681591.41240000003
aF-681480.87645999994
aF-681394.20035000006
aF-681330.30908999988
aF-681288.67497000005
aF-681254.52069999999
aF-681200.77143000008
aF-681173.10316000006
aF-681125.17920999997
aF-681013.92995999998
aF-680998.6002799999
aF-680965.30412999983
aF-680898.49292999983
a(ttp4
a((lp5
I1
aI2
aI3
aI4
aI5
aI6
aI7
aI8
aI9
aI10
aI11
aI12
aI13
aI14
aI15
aI16
aI17
a(lp6
F-682079.8824
aF-682048.97372000001
aF-682025.65550999995
aF-681999.3187200001
aF-681974.70369000011
aF-681936.13810999994
aF-681921.89304999996
aF-681897.95623999997
aF-681885.92776999995
aF-681841.26971000002
aF-681824.39300000016
aF-681809.55205000006
aF-681791.43459000008
aF-681778.37448
aF-681759.89708000002
aF-681737.27922999999
aF-681724.15141000005
a(ttp7
a.