(lp1
I1701
aI1458
aI1557
aI993
aI744
aI882
aI432
aI1170
aI906
aI879
aI1815
aI1587
aI2199
aI1122
aI552
aI1953
aI1488
aI2193
aI1215
aI519
aI1254
aI2448
aI678
aI1146
aI618
aI891
aI1362
aI711
aI429
aI1825
aI810
aI1117
aI483
aI399
aI552
aI810
aI1434
aI1269
aI1026
aI756
aI1614
aI813
aI1026
aI741
aI2994
aI1032
aI1236
aI996
aI1272
aI1056
aI981
aI1017
aI1890
aI2826
aI1062
aI1146
aI1305
aI390
aI894
aI1062
aI1227
aI876
aI990
aI831
aI651
aI1446
aI633
aI1605
aI1287
aI2018
aI654
aI969
aI735
aI1413
aI771
aI2058
aI858
aI1392
aI1036
aI828
aI1596
aI2241
aI495
aI1615
aI1257
aI618
aI2454
aI1597
aI1176
aI1084
aI1086
aI927
aI1803
aI900
aI786
aI1026
aI1575
aI885
aI1548
aI1995
aI780
aI1615
aI1283
aI1772
aI1011
aI1128
a.