(lp1
((lp2
I1
aI2
aI3
aI4
aI5
aI6
aI7
aI8
aI9
aI10
aI11
aI12
aI13
aI14
aI15
aI16
aI17
a(lp3
F-962732.73566000001
aF-962712.58617999998
aF-962695.84845999989
aF-962667.25555999996
aF-962647.12771000003
aF-962632.29142999998
aF-962613.2493899999
aF-962586.66253999993
aF-962572.4084999999
aF-962565.35280999995
aF-962540.67063999991
aF-962527.89735999983
aF-962515.78839999984
aF-962515.78839999984
aF-962515.78839999984
aF-962515.78839999984
aF-962515.78839999984
a(ttp4
a.